target datalayout = "e-m:e-p270:32:32-p271:32:32-p272:64:64-i64:64-i128:128-f80:128-n8:16:32:64-S128"
target triple = "x86_64-pc-linux-gnu"

@hf_ndmp_window_offset = internal global i32 0, align 4
@hf_ndmp_window_length = internal global i32 0, align 4

; Function Attrs: null_pointer_is_valid sspstrong uwtable
define internal i32 @dissect_mover_set_window_request(ptr noundef %0, i32 noundef %1, ptr noundef %2, ptr noundef %3, i32 noundef %4) #0 {
  %6 = alloca ptr, align 8
  %7 = alloca i32, align 4
  %8 = alloca ptr, align 8
  %9 = alloca ptr, align 8
  %10 = alloca i32, align 4
  store ptr %0, ptr %6, align 8
  store i32 %1, ptr %7, align 4
  store ptr %2, ptr %8, align 8
  store ptr %3, ptr %9, align 8
  store i32 %4, ptr %10, align 4
  %11 = load ptr, ptr %9, align 8
  %12 = load i32, ptr @hf_ndmp_window_offset, align 4
  %13 = load ptr, ptr %6, align 8
  %14 = load i32, ptr %7, align 4
  %15 = call ptr @proto_tree_add_item(ptr noundef %11, i32 noundef %12, ptr noundef %13, i32 noundef %14, i32 noundef 8, i32 noundef 0)
  %16 = load i32, ptr %7, align 4
  %17 = add i32 %16, 8
  store i32 %17, ptr %7, align 4
  %18 = load ptr, ptr %9, align 8
  %19 = load i32, ptr @hf_ndmp_window_length, align 4
  %20 = load ptr, ptr %6, align 8
  %21 = load i32, ptr %7, align 4
  %22 = call ptr @proto_tree_add_item(ptr noundef %18, i32 noundef %19, ptr noundef %20, i32 noundef %21, i32 noundef 8, i32 noundef 0)
  %23 = load i32, ptr %7, align 4
  %24 = add i32 %23, 8
  store i32 %24, ptr %7, align 4
  %25 = load i32, ptr %7, align 4
  ret i32 %25
}