; Function Attrs: null_pointer_is_valid sspstrong uwtable
define internal noundef i32 @dissect_mover_set_window_request(ptr noundef %0, i32 noundef %1, ptr readnone captures(none) %2, ptr noundef %3, i32 %4) #0 {
  %6 = load i32, ptr @hf_ndmp_window_offset, align 4
  %7 = tail call ptr @proto_tree_add_item(ptr noundef %3, i32 noundef %6, ptr noundef %0, i32 noundef %1, i32 noundef 8, i32 noundef 0)
  %8 = add i32 %1, 8
  %9 = load i32, ptr @hf_ndmp_window_length, align 4
  %10 = tail call ptr @proto_tree_add_item(ptr noundef %3, i32 noundef %9, ptr noundef %0, i32 noundef %8, i32 noundef 8, i32 noundef 0)
  %11 = add i32 %1, 16
  ret i32 %11
}